(lp0
csqlalchemy.engine.result
rowproxy_reconstructor
p1
(csqlalchemy.engine.result
RowProxy
p2
(dp3
S'_parent'
p4
ccopy_reg
_reconstructor
p5
(csqlalchemy.engine.result
ResultMetaData
p6
c__builtin__
object
p7
Ntp8
Rp9
(dp10
S'keys'
p11
(lp12
Vnct_id
p13
aVnlm_download_date_description
p14
aVfirst_received_date
p15
aVlast_changed_date
p16
aVfirst_received_results_date
p17
aVreceived_results_disposit_date
p18
aVstart_month_year
p19
aVstart_date_type
p20
aVstart_date
p21
aVverification_month_year
p22
aVverification_date
p23
aVcompletion_month_year
p24
aVcompletion_date_type
p25
aVcompletion_date
p26
aVprimary_completion_month_year
p27
aVprimary_completion_date_type
p28
aVprimary_completion_date
p29
aVtarget_duration
p30
aVstudy_type
p31
aVacronym
p32
aVbaseline_population
p33
aVbrief_title
p34
aVofficial_title
p35
aVoverall_status
p36
aVlast_known_status
p37
aVphase
p38
aVenrollment
p39
aVenrollment_type
p40
aVsource
p41
aVlimitations_and_caveats
p42
aVnumber_of_arms
p43
aVnumber_of_groups
p44
aVwhy_stopped
p45
aVhas_expanded_access
p46
aVexpanded_access_type_individual
p47
aVexpanded_access_type_intermediate
p48
aVexpanded_access_type_treatment
p49
aVhas_dmc
p50
aVis_fda_regulated_drug
p51
aVis_fda_regulated_device
p52
aVis_unapproved_device
p53
aVis_ppsd
p54
aVis_us_export
p55
aVbiospec_retention
p56
aVbiospec_description
p57
aVplan_to_share_ipd
p58
aVplan_to_share_ipd_description
p59
aVcreated_at
p60
aVupdated_at
p61
asS'_pickled_keymap'
p62
(dp63
g27
I14
sg55
I42
sg61
I48
sg26
I13
sg50
I37
sg57
I44
sg46
I33
sg51
I38
sg13
I0
sg17
I4
sg54
I41
sg14
I1
sg19
I6
sg33
I20
sg49
I36
sg29
I16
sg30
I17
sg43
I30
sg48
I35
sg21
I8
sg47
I34
sg45
I32
sg16
I3
sg53
I40
sg31
I18
sg28
I15
sg59
I46
sg36
I23
sg20
I7
sg38
I25
sg32
I19
sg52
I39
sg42
I29
sg58
I45
sg25
I12
sg56
I43
sg40
I27
sg39
I26
sg44
I31
sg18
I5
sg24
I11
sg37
I24
sg22
I9
sg35
I22
sg15
I2
sg41
I28
sg34
I21
sg23
I10
sg60
I47
ssS'matched_on_name'
p64
I00
sS'case_sensitive'
p65
I01
sbsS'_row'
p66
(VNCT03029481
p67
VClinicalTrials.gov processed this data on February 17, 2017
p68
cdatetime
date
p69
(S'\x07\xe1\x01\x14'
p70
tp71
Rp72
g69
(S'\x07\xe1\x01\x17'
p73
tp74
Rp75
NNNNNVJanuary 2017
p76
g69
(S'\x07\xe1\x01\x01'
p77
tp78
Rp79
NNNNNNNVExpanded Access
p80
NV
p81
VSingle Patient Expanded Access to Ganitumab for Metastatic Ewing Sarcoma
p82
VSingle Patient Expanded Access to Ganitumab for Metastatic Ewing Sarcoma
p83
VAvailable
p84
NVN/A
p85
NNVJonsson Comprehensive Cancer Center
p86
g81
NNNNNNNNNNNNNNg81
NNcdatetime
datetime
p87
(S'\x07\xe1\x02\x12\x05\x04\x1a\x03)\xf2'
p88
tp89
Rp90
g87
(S'\x07\xe1\x02\x12\x05\x04\x1a\x03)\xf2'
p91
tp92
Rp93
tp94
stp95
Rp96
a.